(dp0
S'contentAdvisoryRating'
p1
I75
sS'offerLinkIncentAllowed'
p2
I76
sS'offerLinkValidationChanges36Hour'
p3
I77
sS'publisherCountActiveSubids'
p4
I5
sS'publisherOfficeId'
p5
I6
sS'type_id'
p6
I7
sS'offerLinkCommissionChanges1Hour'
p7
I78
sS'eventType'
p8
I55
sS'networkAverageOfferLinkActiveChanges4Hour'
p9
I80
sS'utc_minutes_since_midnight'
p10
I214
sS'local_month'
p11
I234
sS'offerLinkConversions7Days'
p12
I81
sS'networkAverageOfferLinkCvr1Hour'
p13
I82
sS'postal_code'
p14
I217
sS'networkAverageOfferLinkTotalChanges1Hour'
p15
I83
sS'country_code'
p16
I218
sS'quality_group_id'
p17
I36
sS'offerLinkAboveAveragePerformanceForPubQ1'
p18
I85
sS'browser_minor'
p19
I250
sS'offerLinkAboveAveragePerformanceForPubQ3'
p20
I86
sS'publisherQualityScoreAverage7Days'
p21
I14
sS'publisherCountActiveUsers'
p22
I15
sS'publisherMargin'
p23
I16
sS'networkId'
p24
I90
sS'networkAverageOfferLinkCommissionChanges1Hour'
p25
I91
sS'publisherCountActiveLinks'
p26
I42
sS'contentRating'
p27
I92
sS'offerLinkValidationChanges1Hour'
p28
I93
sS'response_type_id'
p29
I222
sS'publisherAmUserId'
p30
I26
sS'offers'
p31
I74
sS'networkActiveToValidRatio'
p32
I95
sS'primaryGenreId'
p33
I96
sS'networkUserId'
p34
I79
sS'latitude'
p35
I224
sS'publisherOfferClicks3Day'
p36
I71
sS'averageUserRatingForCurrentVersion'
p37
I98
sS'networkAverageOfferLinkCommissionChanges72Hour'
p38
I99
sS'utc_day_of_week'
p39
I229
sS'offerLinkCreated7DaysAgo'
p40
I100
sS'networkAutoPauseExclusion'
p41
I101
sS'offerLinkClicks7Days'
p42
I102
sS'source2'
p43
I38
sS'offerLinkHopsCount'
p44
I103
sS'networkTransparentIds'
p45
I104
sS'networkAverageOfferLinkClicks4Hour'
p46
I105
sS'offerLinkActiveChanges72Hour'
p47
I106
sS'publisherOfferClicks1Hour'
p48
I70
sS'offer_link_id'
p49
I107
sS'networkLiveFor3Weeks'
p50
I108
sS'click_passed_javascript'
p51
I254
sS'name'
p52
I56
sS'offerLinkLastAutoPausedDays'
p53
I118
sS'offerLinkConversions1Hour'
p54
I109
sS'offerLinkId'
p55
I110
sS'networkAverageSliderSetting'
p56
I111
sS'publisherOfferConversions1Hour'
p57
I65
sS'placementOffer'
p58
I58
sS'publisherOfferId'
p59
I59
sS'tracking_id'
p60
I249
sS'networkChangesPerValidLinks72Hour'
p61
I112
sS'publisherCountActiveCities'
p62
I49
sS'averageUserRating'
p63
I113
sS'publisherCvr4Hour'
p64
I52
sS'local_day_of_month'
p65
I253
sS'user'
p66
I212
sS'offerLinkClicks3Days'
p67
I115
sS'networkIgnoreLinkValidation'
p68
I116
sS'local_day_of_week'
p69
I238
sS'user_agent'
p70
I248
sS'networkChangesPerValidLinks12Hour'
p71
I117
sS'networkAverageOfferLinkConversions3Days'
p72
I84
sS'networkAverageOfferLinkClicks7Days'
p73
I119
sS'publisherCreated7DaysAgo'
p74
I8
sS'networkChangesPerValidLinks4Hour'
p75
I121
sS'networkCap'
p76
I122
sS'networkLiveFor24Hours'
p77
I123
sS'publisherCvr3Days'
p78
I10
sS'offerLinkCvr7Days'
p79
I124
sS'userRatingCountForCurrentVersion'
p80
I125
sS'networkAverageOfferLinkCvr4Hour'
p81
I126
sS'publisherSumInstalls4Hour'
p82
I23
sS'event'
p83
I0
sS'offerLinkAutoPausedWithin1Days'
p84
I127
sS'offerLinkAboveAveragePerformanceForPubQ2'
p85
I87
sS'networkAverageOfferLinkTotalChanges12Hour'
p86
I128
sS'publisherCvr7Days'
p87
I20
sS'offerLinkActiveChanges12Hour'
p88
I129
sS'offerLinkAboveAveragePerformanceForPubQ5'
p89
I88
sS'networkAverageOfferLinkActiveChanges1Hour'
p90
I130
sS'anArrayIndex'
p91
I255
sS'networkAverageOfferLinkClicks1Hour'
p92
I89
sS'networkAverageOfferLinkCommissionChanges36Hour'
p93
I132
sS'publisherSumClicks12Hour'
p94
I33
sS'pqh_RPM'
p95
I133
sS'publisherCvr1Hour'
p96
I27
sS'ip_autonomous_system_organization'
p97
I225
sS'browser_major'
p98
I226
sS'utc_day_of_month'
p99
I227
sS'offerLinkCreated2MonthsAgo'
p100
I135
sS'publisherCompanyId'
p101
I31
sS'offerLinkCommission'
p102
I180
sS'networkChangesPerValidLinks1Hour'
p103
I136
sS'publisherOfferCvr7Day'
p104
I62
sS'networkCompanyId'
p105
I137
sS'networkAverageOfferLinkActiveChanges36Hour'
p106
I138
sS'aws_region'
p107
I233
sS'networkAverageMtbf'
p108
I139
sS'local_timezone_offset'
p109
I236
sS'offerLinkValidationChanges12Hour'
p110
I97
sS'fileSize'
p111
I141
sS'networkTotalValidLinks'
p112
I142
sS'genre'
p113
I143
sS'publisherCreated24HoursAgo'
p114
I37
sS'offerLinkCreated6HoursAgo'
p115
I144
sS'networkAverageOfferLinkCommissionChanges12Hour'
p116
I145
sS'offerLinkActiveChanges1Hour'
p117
I146
sS'publisherOfferConversions7Day'
p118
I61
sS'userRatingCount'
p119
I140
sS'networkAverageOfferLinkTotalChanges36Hour'
p120
I160
sS'language'
p121
I241
sS'publisherSumInstalls7Days'
p122
I41
sS'createdOn'
p123
I57
sS'networkMstOffset'
p124
I147
sS'publisherCloserUserId'
p125
I44
sS'networkTotalActiveLinks'
p126
I148
sS'browser_family'
p127
I252
sS'offerLinkCommissionChanges4Hour'
p128
I149
sS'networkAverageOfferLinkActiveChanges72Hour'
p129
I200
sS'networkAverageOfferLinkValidationChanges72Hour'
p130
I114
sS'attributes'
p131
I3
sS'publisherOfferConversions12Hour'
p132
I72
sS'offerLinkCommissionChanges36Hour'
p133
I152
sS'publisherCreated2MonthsAgo'
p134
I4
sS'campaignId'
p135
I153
sS'device_family'
p136
I240
sS'area_code'
p137
I231
sS'networkChangesPerActiveLinks1Hour'
p138
I134
sS'publisherCreated3WeeksAgo'
p139
I9
sS'networkWhitelistOnly'
p140
I155
sS'networkChangesPerActiveLinks36Hour'
p141
I156
sS'publisherSumClicks4Hour'
p142
I12
sS'publisherForceToStore'
p143
I13
sS'networkAverageOfferLinkTotalChanges4Hour'
p144
I158
sS'publisherCountActiveGeos'
p145
I25
sS'networkLiveFor2Months'
p146
I182
sS'networkAverageOfferLinkClicks3Days'
p147
I159
sS'city'
p148
I219
sS'publisherCountActiveDeviceIds'
p149
I19
sS'offerLinkCreated3WeeksAgo'
p150
I154
sS'source'
p151
I22
sS'publisherOfferClicks12Hour'
p152
I63
sS'networkAverageOfferLinkConversions1Hour'
p153
I161
sS'publisherUserId'
p154
I24
sS'networkAverageOfferLinkCvr3Days'
p155
I162
sS'user_ip'
p156
I235
sS'networkOfferLinkCommissionDiscount'
p157
I163
sS'networkLiveFor6Months'
p158
I164
sS'offerLinkTotalChanges72Hour'
p159
I165
sS'offerLinkTotalChanges36Hour'
p160
I166
sS'networkAmUserId'
p161
I167
sS'publisherSumClicks7Days'
p162
I29
sS'publisherMonetizeDesktop'
p163
I30
sS'networkAverageOfferLinkConversions7Days'
p164
I207
sS'offerLinkAboveAveragePerformanceForPubQ4'
p165
I131
sS'developerName'
p166
I170
sS'offerLinkCvr1Hour'
p167
I120
sS'offerLinkUserId'
p168
I171
sS'referer'
p169
I251
sS'tracking_id_hashed'
p170
I230
sS'publisherForensiqOverride'
p171
I35
sS'networkAverageOfferLinkValidationChanges36Hour'
p172
I198
sS'utc_month'
p173
I239
sS'offerLinkCommissionChanges72Hour'
p174
I172
sS'offerLinkCvr3Days'
p175
I157
sS'offerLinkActiveChanges4Hour'
p176
I173
sS'networkAverageOfferLinkValidationChanges4Hour'
p177
I174
sS'publisherForensiqScoreMin'
p178
I39
sS'fileSizeBytes'
p179
I175
sS'publisherSumInstalls1Hour'
p180
I40
sS'platform_id'
p181
I246
sS'offerLinkTotalChanges1Hour'
p182
I176
sS'networkAverageOfferLinkCvr7Days'
p183
I177
sS'publisherSumInstalls12Hour'
p184
I43
sS'longitude'
p185
I245
sS'artistName'
p186
I178
sS'publisherQualityScoreAverage3Weeks'
p187
I46
sS'ratingValue'
p188
I179
sS'publisherCountActiveCountries'
p189
I47
sS'publisherQualityScoreYesterday'
p190
I48
sS'networkQualityGroupId'
p191
I181
sS'networkAverageOfferLinkHopsCount'
p192
I169
sS'networkChangesPerActiveLinks12Hour'
p193
I183
sS'publisherId'
p194
I51
sS'region'
p195
I242
sS'publisherUserToInstallRatio'
p196
I53
sS'publisherOfferCvr12Hour'
p197
I60
sS'local_timezone'
p198
I243
sS'offerLinkActiveChanges36Hour'
p199
I185
sS'ratingCount'
p200
I187
sS'site'
p201
I215
sS'local_minutes_since_midnight'
p202
I216
sS'publisherIncent'
p203
I11
sS'publisherOfferClicks7Day'
p204
I69
sS'offerLinkCommissionChanges12Hour'
p205
I186
sS'networkAverageOfferLinkValidationChanges1Hour'
p206
I188
sS'networkAverageOfferLinkCommissionChanges4Hour'
p207
I189
sS'offerLinkConversions3Days'
p208
I190
sS'id'
p209
I54
sS'offerLinkValidationChanges4Hour'
p210
I191
sS'publisherCountActiveOffers'
p211
I17
sS'ip_organization'
p212
I228
sS'conversion'
p213
I1
sS'publisherTransparentIds'
p214
I18
sS'publisherSumClicks1Hour'
p215
I21
sS'offerLinkTotalChanges12Hour'
p216
I194
sS'os_minor'
p217
I220
sS'idfa'
p218
I237
sS'dma_code'
p219
I221
sS'networkAverageOfferLinkValidationChanges12Hour'
p220
I195
sS'publisherOfferCvr4Hour'
p221
I68
sS'offerLinkCvr4Hour'
p222
I196
sS'androidid'
p223
I223
sS'offerLinkConversions4Hour'
p224
I197
sS'publisherSumClicks3Days'
p225
I28
sS'publisherOfferConversions4Hour'
p226
I73
sS'publisherCountActiveNetworks'
p227
I32
sS'offerLinkTotalChanges4Hour'
p228
I199
sS'ip_connection_type'
p229
I232
sS'networkChangesPerActiveLinks4Hour'
p230
I150
sS'publisherOfferConversions3Day'
p231
I66
sS'publisherForensiqTraffic'
p232
I34
sS'networkAverageOfferLinkConversions4Hour'
p233
I192
sS'os_family'
p234
I213
sS'networkAverageOfferLinkActiveChanges12Hour'
p235
I94
sS'networkCloserUserId'
p236
I151
sS'offerLinkAutoPausedWithin7Days'
p237
I184
sS'networkChangesPerActiveLinks72Hour'
p238
I201
sS'networkPlatformService'
p239
I210
sS'networkLiveFor7Days'
p240
I202
sS'numDownloads'
p241
I203
sS'placement'
p242
I2
sS'offerLinkClicks4Hour'
p243
I204
sS'networkChangesPerValidLinks36Hour'
p244
I205
sS'publisherOfferClicks4Hour'
p245
I67
sS'os_major'
p246
I244
sS'publisherOfferCvr3Day'
p247
I64
sS'networkAverageOfferLinkTotalChanges72Hour'
p248
I206
sS'publisherSumInstalls3Days'
p249
I45
sS'ip_isp'
p250
I247
sS'offerLinkMtbf'
p251
I193
sS'offerLinkValidatiionChanges72Hour'
p252
I208
sS'offerLinkClicks1Hour'
p253
I209
sS'publisherCvr12Hour'
p254
I50
sS'campaignCap'
p255
I168
sS'offerLinkCreated24HoursAgo'
p256
I211
s.